target datalayout = "e-m:e-p270:32:32-p271:32:32-p272:64:64-i64:64-i128:128-f80:128-n8:16:32:64-S128"
target triple = "x86_64-pc-linux-gnu"

%struct.AVCodecContext = type { ptr, i32, i32, ptr, i32, i32, ptr, ptr, ptr, i64, i32, i32, ptr, i32, %struct.AVRational, %struct.AVRational, %struct.AVRational, i32, i32, i32, i32, i32, %struct.AVRational, i32, i32, i32, i32, i32, i32, i32, i32, i32, i32, i32, ptr, ptr, i32, float, float, float, float, float, float, float, float, float, i32, i32, i32, i32, i32, i32, i32, i32, i32, i32, i32, i32, ptr, ptr, ptr, i32, i32, i32, i32, i32, i32, i32, i32, i32, i32, %struct.AVChannelLayout, i32, i32, i32, i32, i32, i32, i32, i32, ptr, i32, i32, i32, float, float, i32, i32, i32, i32, i32, ptr, i64, i64, float, float, i32, i32, ptr, ptr, i32, i32, i32, i32, i32, ptr, ptr, ptr, ptr, i32, i32, [8 x i64], i32, i32, i32, i32, i32, i32, i32, ptr, ptr, i32, i32, i32, i32, i32, i32, i32, i32, i32, i32, ptr, ptr, i32, i32, ptr, ptr, ptr, ptr, i32, i32, i64, i32, i32, i64, ptr, i64, ptr, i32, ptr, i32 }
%struct.AVRational = type { i32, i32 }
%struct.AVChannelLayout = type { i32, i32, %union.anon.0, ptr }
%union.anon.0 = type { i64 }
%struct.DSTContext = type { ptr, %struct.GetBitContext, %struct.ArithCoder, %struct.Table, %struct.Table, [8 x i8], [6 x [16 x i8]], [12 x [16 x [256 x i16]]], [6 x %struct.DSDContext], [8 x i8] }
%struct.GetBitContext = type { ptr, ptr, i32, i32, i32 }
%struct.ArithCoder = type { i32, i32 }
%struct.Table = type { i32, [12 x i32], [12 x [128 x i32]] }
%struct.DSDContext = type { [16 x i8], i32 }

@.str.2 = private unnamed_addr constant [17 x i8] c"Channel count %d\00", align 1

; Function Attrs: cold nounwind optsize uwtable
define internal i32 @decode_init(ptr noundef %0) #0 {
  %2 = alloca i32, align 4
  %3 = alloca ptr, align 8
  %4 = alloca ptr, align 8
  %5 = alloca i32, align 4
  %6 = alloca i32, align 4
  store ptr %0, ptr %3, align 8, !tbaa !4
  call void @llvm.lifetime.start.p0(i64 8, ptr %4) #9
  %7 = load ptr, ptr %3, align 8, !tbaa !4
  %8 = getelementptr inbounds nuw %struct.AVCodecContext, ptr %7, i32 0, i32 6
  %9 = load ptr, ptr %8, align 8, !tbaa !9
  store ptr %9, ptr %4, align 8, !tbaa !29
  call void @llvm.lifetime.start.p0(i64 4, ptr %5) #9
  %10 = load ptr, ptr %3, align 8, !tbaa !4
  %11 = getelementptr inbounds nuw %struct.AVCodecContext, ptr %10, i32 0, i32 71
  %12 = getelementptr inbounds nuw %struct.AVChannelLayout, ptr %11, i32 0, i32 1
  %13 = load i32, ptr %12, align 4, !tbaa !31
  %14 = icmp sgt i32 %13, 6
  br i1 %14, label %15, label %21

15:                                               ; preds = %1
  %16 = load ptr, ptr %3, align 8, !tbaa !4
  %17 = load ptr, ptr %3, align 8, !tbaa !4
  %18 = getelementptr inbounds nuw %struct.AVCodecContext, ptr %17, i32 0, i32 71
  %19 = getelementptr inbounds nuw %struct.AVChannelLayout, ptr %18, i32 0, i32 1
  %20 = load i32, ptr %19, align 4, !tbaa !31
  call void (ptr, ptr, ...) @avpriv_request_sample(ptr noundef %16, ptr noundef @.str.2, i32 noundef %20)
  store i32 -1163346256, ptr %2, align 4
  store i32 1, ptr %6, align 4
  br label %60

21:                                               ; preds = %1
  %22 = load ptr, ptr %3, align 8, !tbaa !4
  %23 = getelementptr inbounds nuw %struct.AVCodecContext, ptr %22, i32 0, i32 69
  %24 = load i32, ptr %23, align 8, !tbaa !32
  %25 = icmp sgt i32 %24, 22579200
  br i1 %25, label %26, label %27

26:                                               ; preds = %21
  store i32 -1094995529, ptr %2, align 4
  store i32 1, ptr %6, align 4
  br label %60

27:                                               ; preds = %21
  %28 = load ptr, ptr %3, align 8, !tbaa !4
  %29 = getelementptr inbounds nuw %struct.AVCodecContext, ptr %28, i32 0, i32 69
  %30 = load i32, ptr %29, align 8, !tbaa !32
  %31 = sext i32 %30 to i64
  %32 = mul nsw i64 %31, 8
  %33 = sdiv i64 %32, 44100
  %34 = mul nsw i64 588, %33
  %35 = and i64 %34, 7
  %36 = icmp ne i64 %35, 0
  br i1 %36, label %37, label %38

37:                                               ; preds = %27
  store i32 -1163346256, ptr %2, align 4
  store i32 1, ptr %6, align 4
  br label %60

38:                                               ; preds = %27
  %39 = load ptr, ptr %3, align 8, !tbaa !4
  %40 = getelementptr inbounds nuw %struct.AVCodecContext, ptr %39, i32 0, i32 70
  store i32 3, ptr %40, align 4, !tbaa !33
  store i32 0, ptr %5, align 4, !tbaa !34
  br label %41

41:                                               ; preds = %56, %38
  %42 = load i32, ptr %5, align 4, !tbaa !34
  %43 = load ptr, ptr %3, align 8, !tbaa !4
  %44 = getelementptr inbounds nuw %struct.AVCodecContext, ptr %43, i32 0, i32 71
  %45 = getelementptr inbounds nuw %struct.AVChannelLayout, ptr %44, i32 0, i32 1
  %46 = load i32, ptr %45, align 4, !tbaa !31
  %47 = icmp slt i32 %42, %46
  br i1 %47, label %48, label %59

48:                                               ; preds = %41
  %49 = load ptr, ptr %4, align 8, !tbaa !29
  %50 = getelementptr inbounds nuw %struct.DSTContext, ptr %49, i32 0, i32 8
  %51 = load i32, ptr %5, align 4, !tbaa !34
  %52 = sext i32 %51 to i64
  %53 = getelementptr inbounds [6 x %struct.DSDContext], ptr %50, i64 0, i64 %52
  %54 = getelementptr inbounds nuw %struct.DSDContext, ptr %53, i32 0, i32 0
  %55 = getelementptr inbounds [16 x i8], ptr %54, i64 0, i64 0
  call void @llvm.memset.p0.i64(ptr align 4 %55, i8 105, i64 16, i1 false)
  br label %56

56:                                               ; preds = %48
  %57 = load i32, ptr %5, align 4, !tbaa !34
  %58 = add nsw i32 %57, 1
  store i32 %58, ptr %5, align 4, !tbaa !34
  br label %41, !llvm.loop !35

59:                                               ; preds = %41
  call void @ff_init_dsd_data()
  store i32 0, ptr %2, align 4
  store i32 1, ptr %6, align 4
  br label %60

60:                                               ; preds = %59, %37, %26, %15
  call void @llvm.lifetime.end.p0(i64 4, ptr %5) #9
  call void @llvm.lifetime.end.p0(i64 8, ptr %4) #9
  %61 = load i32, ptr %2, align 4
  ret i32 %61
}