; Function Attrs: cold nounwind optsize uwtable
define internal range(i32 -1163346256, 1) i32 @decode_init(ptr noundef %0) #0 {
  %2 = getelementptr inbounds nuw i8, ptr %0, i64 32
  %3 = load ptr, ptr %2, align 8, !tbaa !4
  %4 = getelementptr inbounds nuw i8, ptr %0, i64 356
  %5 = load i32, ptr %4, align 4, !tbaa !27
  %6 = icmp sgt i32 %5, 6
  br i1 %6, label %7, label %8

7:                                                ; preds = %1
  tail call void (ptr, ptr, ...) @avpriv_request_sample(ptr noundef nonnull %0, ptr noundef nonnull @.str.2, i32 noundef %5) #9
  br label %26

8:                                                ; preds = %1
  %9 = getelementptr inbounds nuw i8, ptr %0, i64 344
  %10 = load i32, ptr %9, align 8, !tbaa !28
  %11 = icmp sgt i32 %10, 22579200
  br i1 %11, label %26, label %12

12:                                               ; preds = %8
  %13 = sext i32 %10 to i64
  %14 = shl nsw i64 %13, 3
  %15 = sdiv i64 %14, 44100
  %16 = and i64 %15, 1
  %.not = icmp eq i64 %16, 0
  br i1 %.not, label %17, label %26

17:                                               ; preds = %12
  %18 = getelementptr inbounds nuw i8, ptr %0, i64 348
  store i32 3, ptr %18, align 4, !tbaa !29
  %19 = icmp sgt i32 %5, 0
  br i1 %19, label %.lr.ph, label %._crit_edge

.lr.ph:                                           ; preds = %17
  %20 = getelementptr inbounds nuw i8, ptr %3, i64 110848
  br label %21

21:                                               ; preds = %.lr.ph, %21
  %indvars.iv = phi i64 [ 0, %.lr.ph ], [ %indvars.iv.next, %21 ]
  %22 = getelementptr inbounds nuw [6 x %struct.DSDContext], ptr %20, i64 0, i64 %indvars.iv
  tail call void @llvm.memset.p0.i64(ptr noundef nonnull align 4 dereferenceable(16) %22, i8 105, i64 16, i1 false)
  %indvars.iv.next = add nuw nsw i64 %indvars.iv, 1
  %23 = load i32, ptr %4, align 4, !tbaa !27
  %24 = sext i32 %23 to i64
  %25 = icmp slt i64 %indvars.iv.next, %24
  br i1 %25, label %21, label %._crit_edge, !llvm.loop !30

._crit_edge:                                      ; preds = %21, %17
  tail call void @ff_init_dsd_data() #9
  br label %26

26:                                               ; preds = %12, %8, %._crit_edge, %7
  %.012 = phi i32 [ -1163346256, %7 ], [ 0, %._crit_edge ], [ -1094995529, %8 ], [ -1163346256, %12 ]
  ret i32 %.012
}